target datalayout = "e-m:e-p270:32:32-p271:32:32-p272:64:64-i64:64-i128:128-f80:128-n8:16:32:64-S128"
target triple = "x86_64-unknown-linux-gnu"

@parse_vorbis_comment_field_names.violations = internal constant [1 x ptr] [ptr @.str.89], align 8

; Function Attrs: nounwind sspstrong uwtable
define internal i32 @parse_vorbis_comment_field_names(ptr noundef %field_ref, ptr noundef %names, ptr noundef %violation) #0 {
entry:
  %retval = alloca i32, align 4
  %field_ref.addr = alloca ptr, align 8
  %names.addr = alloca ptr, align 8
  %violation.addr = alloca ptr, align 8
  %q = alloca ptr, align 8
  %s = alloca ptr, align 8
  store ptr %field_ref, ptr %field_ref.addr, align 8
  store ptr %names, ptr %names.addr, align 8
  store ptr %violation, ptr %violation.addr, align 8
  %0 = load ptr, ptr %field_ref.addr, align 8
  %call = call ptr @local_strdup(ptr noundef %0)
  store ptr %call, ptr %s, align 8
  %1 = load ptr, ptr %s, align 8
  store ptr %1, ptr %q, align 8
  br label %for.cond

for.cond:                                         ; preds = %for.inc, %entry
  %2 = load ptr, ptr %q, align 8
  %3 = load i8, ptr %2, align 1
  %tobool = icmp ne i8 %3, 0
  br i1 %tobool, label %for.body, label %for.end

for.body:                                         ; preds = %for.cond
  %4 = load ptr, ptr %q, align 8
  %5 = load i8, ptr %4, align 1
  %conv = sext i8 %5 to i32
  %cmp = icmp slt i32 %conv, 32
  br i1 %cmp, label %if.then, label %lor.lhs.false

lor.lhs.false:                                    ; preds = %for.body
  %6 = load ptr, ptr %q, align 8
  %7 = load i8, ptr %6, align 1
  %conv2 = sext i8 %7 to i32
  %cmp3 = icmp sgt i32 %conv2, 125
  br i1 %cmp3, label %if.then, label %if.end

if.then:                                          ; preds = %lor.lhs.false, %for.body
  %8 = load ptr, ptr %s, align 8
  call void @free(ptr noundef %8) #10
  %9 = load ptr, ptr @parse_vorbis_comment_field_names.violations, align 8
  %10 = load ptr, ptr %violation.addr, align 8
  store ptr %9, ptr %10, align 8
  store i32 0, ptr %retval, align 4
  br label %return

if.end:                                           ; preds = %lor.lhs.false
  br label %for.inc

for.inc:                                          ; preds = %if.end
  %11 = load ptr, ptr %q, align 8
  %incdec.ptr = getelementptr inbounds i8, ptr %11, i32 1
  store ptr %incdec.ptr, ptr %q, align 8
  br label %for.cond, !llvm.loop !15

for.end:                                          ; preds = %for.cond
  %12 = load ptr, ptr %s, align 8
  %13 = load ptr, ptr %names.addr, align 8
  store ptr %12, ptr %13, align 8
  store i32 1, ptr %retval, align 4
  br label %return

return:                                           ; preds = %for.end, %if.then
  %14 = load i32, ptr %retval, align 4
  ret i32 %14
}