; Function Attrs: nounwind sspstrong uwtable
define internal fastcc range(i32 0, 2) i32 @parse_vorbis_comment_field_names(ptr noundef %field_ref, ptr noundef writeonly captures(none) %names, ptr noundef nonnull writeonly captures(none) %violation) unnamed_addr #1 {
entry:
  %call = tail call ptr @local_strdup(ptr noundef %field_ref) #20
  %0 = load i8, ptr %call, align 1
  %tobool.not6 = icmp eq i8 %0, 0
  br i1 %tobool.not6, label %for.end, label %for.body

for.cond:                                         ; preds = %for.body
  %incdec.ptr = getelementptr inbounds nuw i8, ptr %q.07, i64 1
  %1 = load i8, ptr %incdec.ptr, align 1
  %tobool.not = icmp eq i8 %1, 0
  br i1 %tobool.not, label %for.end, label %for.body, !llvm.loop !16

for.body:                                         ; preds = %entry, %for.cond
  %2 = phi i8 [ %1, %for.cond ], [ %0, %entry ]
  %q.07 = phi ptr [ %incdec.ptr, %for.cond ], [ %call, %entry ]
  %3 = add i8 %2, -126
  %or.cond = icmp ult i8 %3, -94
  br i1 %or.cond, label %if.then, label %for.cond

if.then:                                          ; preds = %for.body
  tail call void @free(ptr noundef %call) #20
  store ptr @.str.89, ptr %violation, align 8
  br label %return

for.end:                                          ; preds = %for.cond, %entry
  store ptr %call, ptr %names, align 8
  br label %return

return:                                           ; preds = %for.end, %if.then
  %retval.0 = phi i32 [ 0, %if.then ], [ 1, %for.end ]
  ret i32 %retval.0
}